	.file	"origin.c"
	.section .rdata,"dr"
.LC0:
	.ascii "%d\0"
	.text
	.globl	a
	.def	a;	.scl	2;	.type	32;	.endef
	.seh_proc	a
a:
	pushq	%rbp
	.seh_pushreg	%rbp
	movq	%rsp, %rbp
	.seh_setframe	%rbp, 0
	subq	$32, %rsp
	.seh_stackalloc	32
	.seh_endprologue
	movl	$128, %edx
	leaq	.LC0(%rip), %rcx
	call	printf
	nop
	addq	$32, %rsp
	popq	%rbp
	ret
	.seh_endproc
	.def	__main;	.scl	2;	.type	32;	.endef
	.globl	main
	.def	main;	.scl	2;	.type	32;	.endef
	.seh_proc	main
//新增加的函数
b:
	pushq	%rbp
	.seh_pushreg	%rbp
	movq	%rsp, %rbp
	.seh_setframe	%rbp, 0
	subq	$32, %rsp
	.seh_stackalloc	32
	.seh_endprologue
	//这里是printf(%d,66)
	movl	$66, %edx
	leaq	.LC0(%rip), %rcx
	call	printf
	nop
	addq	$32, %rsp
	popq	%rbp
	ret
	.seh_endproc
	.def	__main;	.scl	2;	.type	32;	.endef
	.globl	main
	.def	main;	.scl	2;	.type	32;	.endef
	.seh_proc	main
main:
	pushq	%rbp
	.seh_pushreg	%rbp
	movq	%rsp, %rbp
	.seh_setframe	%rbp, 0
	subq	$32, %rsp
	.seh_stackalloc	32
	.seh_endprologue
	call	__main
	call	a
	//新增加的调用
	call	b
	movl	$0, %eax
	addq	$32, %rsp
	popq	%rbp
	ret
	.seh_endproc
	.ident	"GCC: (tdm64-1) 4.9.2"
	.def	printf;	.scl	2;	.type	32;	.endef
